target datalayout = "e-m:e-p270:32:32-p271:32:32-p272:64:64-i64:64-i128:128-f80:128-n8:16:32:64-S128"
target triple = "x86_64-pc-linux-gnu"

%"class.pxrInternal_v0_24__pxrReserved__::GfRect2i" = type { %"class.pxrInternal_v0_24__pxrReserved__::GfVec2i", %"class.pxrInternal_v0_24__pxrReserved__::GfVec2i" }
%"class.pxrInternal_v0_24__pxrReserved__::GfVec2i" = type { [2 x i32] }

; Function Attrs: mustprogress nounwind uwtable
define linkonce_odr void @_ZN32pxrInternal_v0_24__pxrReserved__8GfRect2iC2ERKNS_7GfVec2iES3_(ptr noundef nonnull align 4 dereferenceable(16) %0, ptr noundef nonnull align 4 dereferenceable(8) %1, ptr noundef nonnull align 4 dereferenceable(8) %2) unnamed_addr #2 comdat align 2 {
  %4 = alloca ptr, align 8
  %5 = alloca ptr, align 8
  %6 = alloca ptr, align 8
  store ptr %0, ptr %4, align 8
  store ptr %1, ptr %5, align 8
  store ptr %2, ptr %6, align 8
  %7 = load ptr, ptr %4, align 8
  %8 = getelementptr inbounds nuw %"class.pxrInternal_v0_24__pxrReserved__::GfRect2i", ptr %7, i32 0, i32 0
  %9 = load ptr, ptr %5, align 8
  call void @llvm.memcpy.p0.p0.i64(ptr align 4 %8, ptr align 4 %9, i64 8, i1 false)
  %10 = getelementptr inbounds nuw %"class.pxrInternal_v0_24__pxrReserved__::GfRect2i", ptr %7, i32 0, i32 1
  %11 = load ptr, ptr %6, align 8
  call void @llvm.memcpy.p0.p0.i64(ptr align 4 %10, ptr align 4 %11, i64 8, i1 false)
  ret void
}

; Function Attrs: mustprogress nounwind uwtable
define linkonce_odr noundef nonnull align 4 dereferenceable(4) ptr @_ZN32pxrInternal_v0_24__pxrReserved__7GfVec2iixEm(ptr noundef nonnull align 4 dereferenceable(8) %0, i64 noundef %1) #2 comdat align 2 {
  %3 = alloca ptr, align 8
  %4 = alloca i64, align 8
  store ptr %0, ptr %3, align 8
  store i64 %1, ptr %4, align 8
  %5 = load ptr, ptr %3, align 8
  %6 = getelementptr inbounds nuw %"class.pxrInternal_v0_24__pxrReserved__::GfVec2i", ptr %5, i32 0, i32 0
  %7 = load i64, ptr %4, align 8
  %8 = getelementptr inbounds [2 x i32], ptr %6, i64 0, i64 %7
  ret ptr %8
}

; Function Attrs: mustprogress nounwind uwtable
define linkonce_odr noundef nonnull align 4 dereferenceable(4) ptr @_ZNK32pxrInternal_v0_24__pxrReserved__7GfVec2iixEm(ptr noundef nonnull align 4 dereferenceable(8) %0, i64 noundef %1) #2 comdat align 2 {
  %3 = alloca ptr, align 8
  %4 = alloca i64, align 8
  store ptr %0, ptr %3, align 8
  store i64 %1, ptr %4, align 8
  %5 = load ptr, ptr %3, align 8
  %6 = getelementptr inbounds nuw %"class.pxrInternal_v0_24__pxrReserved__::GfVec2i", ptr %5, i32 0, i32 0
  %7 = load i64, ptr %4, align 8
  %8 = getelementptr inbounds [2 x i32], ptr %6, i64 0, i64 %7
  ret ptr %8
}

; Function Attrs: mustprogress uwtable
define { i64, i64 } @_ZNK32pxrInternal_v0_24__pxrReserved__8GfRect2i13GetNormalizedEv(ptr noundef nonnull align 4 dereferenceable(16) %0) #0 align 2 {
  %2 = alloca %"class.pxrInternal_v0_24__pxrReserved__::GfRect2i", align 4
  %3 = alloca ptr, align 8
  %4 = alloca %"class.pxrInternal_v0_24__pxrReserved__::GfVec2i", align 4
  %5 = alloca %"class.pxrInternal_v0_24__pxrReserved__::GfVec2i", align 4
  store ptr %0, ptr %3, align 8
  %6 = load ptr, ptr %3, align 8
  %7 = getelementptr inbounds nuw %"class.pxrInternal_v0_24__pxrReserved__::GfRect2i", ptr %6, i32 0, i32 1
  %8 = call noundef nonnull align 4 dereferenceable(4) ptr @_ZNK32pxrInternal_v0_24__pxrReserved__7GfVec2iixEm(ptr noundef nonnull align 4 dereferenceable(8) %7, i64 noundef 0)
  %9 = load i32, ptr %8, align 4
  %10 = getelementptr inbounds nuw %"class.pxrInternal_v0_24__pxrReserved__::GfRect2i", ptr %6, i32 0, i32 0
  %11 = call noundef nonnull align 4 dereferenceable(4) ptr @_ZNK32pxrInternal_v0_24__pxrReserved__7GfVec2iixEm(ptr noundef nonnull align 4 dereferenceable(8) %10, i64 noundef 0)
  %12 = load i32, ptr %11, align 4
  %13 = icmp slt i32 %9, %12
  br i1 %13, label %14, label %23

14:                                               ; preds = %1
  %15 = getelementptr inbounds nuw %"class.pxrInternal_v0_24__pxrReserved__::GfRect2i", ptr %6, i32 0, i32 1
  %16 = call noundef nonnull align 4 dereferenceable(4) ptr @_ZNK32pxrInternal_v0_24__pxrReserved__7GfVec2iixEm(ptr noundef nonnull align 4 dereferenceable(8) %15, i64 noundef 0)
  %17 = load i32, ptr %16, align 4
  %18 = call noundef nonnull align 4 dereferenceable(4) ptr @_ZN32pxrInternal_v0_24__pxrReserved__7GfVec2iixEm(ptr noundef nonnull align 4 dereferenceable(8) %4, i64 noundef 0)
  store i32 %17, ptr %18, align 4
  %19 = getelementptr inbounds nuw %"class.pxrInternal_v0_24__pxrReserved__::GfRect2i", ptr %6, i32 0, i32 0
  %20 = call noundef nonnull align 4 dereferenceable(4) ptr @_ZNK32pxrInternal_v0_24__pxrReserved__7GfVec2iixEm(ptr noundef nonnull align 4 dereferenceable(8) %19, i64 noundef 0)
  %21 = load i32, ptr %20, align 4
  %22 = call noundef nonnull align 4 dereferenceable(4) ptr @_ZN32pxrInternal_v0_24__pxrReserved__7GfVec2iixEm(ptr noundef nonnull align 4 dereferenceable(8) %5, i64 noundef 0)
  store i32 %21, ptr %22, align 4
  br label %32

23:                                               ; preds = %1
  %24 = getelementptr inbounds nuw %"class.pxrInternal_v0_24__pxrReserved__::GfRect2i", ptr %6, i32 0, i32 0
  %25 = call noundef nonnull align 4 dereferenceable(4) ptr @_ZNK32pxrInternal_v0_24__pxrReserved__7GfVec2iixEm(ptr noundef nonnull align 4 dereferenceable(8) %24, i64 noundef 0)
  %26 = load i32, ptr %25, align 4
  %27 = call noundef nonnull align 4 dereferenceable(4) ptr @_ZN32pxrInternal_v0_24__pxrReserved__7GfVec2iixEm(ptr noundef nonnull align 4 dereferenceable(8) %4, i64 noundef 0)
  store i32 %26, ptr %27, align 4
  %28 = getelementptr inbounds nuw %"class.pxrInternal_v0_24__pxrReserved__::GfRect2i", ptr %6, i32 0, i32 1
  %29 = call noundef nonnull align 4 dereferenceable(4) ptr @_ZNK32pxrInternal_v0_24__pxrReserved__7GfVec2iixEm(ptr noundef nonnull align 4 dereferenceable(8) %28, i64 noundef 0)
  %30 = load i32, ptr %29, align 4
  %31 = call noundef nonnull align 4 dereferenceable(4) ptr @_ZN32pxrInternal_v0_24__pxrReserved__7GfVec2iixEm(ptr noundef nonnull align 4 dereferenceable(8) %5, i64 noundef 0)
  store i32 %30, ptr %31, align 4
  br label %32

32:                                               ; preds = %23, %14
  %33 = getelementptr inbounds nuw %"class.pxrInternal_v0_24__pxrReserved__::GfRect2i", ptr %6, i32 0, i32 1
  %34 = call noundef nonnull align 4 dereferenceable(4) ptr @_ZNK32pxrInternal_v0_24__pxrReserved__7GfVec2iixEm(ptr noundef nonnull align 4 dereferenceable(8) %33, i64 noundef 1)
  %35 = load i32, ptr %34, align 4
  %36 = getelementptr inbounds nuw %"class.pxrInternal_v0_24__pxrReserved__::GfRect2i", ptr %6, i32 0, i32 0
  %37 = call noundef nonnull align 4 dereferenceable(4) ptr @_ZNK32pxrInternal_v0_24__pxrReserved__7GfVec2iixEm(ptr noundef nonnull align 4 dereferenceable(8) %36, i64 noundef 1)
  %38 = load i32, ptr %37, align 4
  %39 = icmp slt i32 %35, %38
  br i1 %39, label %40, label %49

40:                                               ; preds = %32
  %41 = getelementptr inbounds nuw %"class.pxrInternal_v0_24__pxrReserved__::GfRect2i", ptr %6, i32 0, i32 1
  %42 = call noundef nonnull align 4 dereferenceable(4) ptr @_ZNK32pxrInternal_v0_24__pxrReserved__7GfVec2iixEm(ptr noundef nonnull align 4 dereferenceable(8) %41, i64 noundef 1)
  %43 = load i32, ptr %42, align 4
  %44 = call noundef nonnull align 4 dereferenceable(4) ptr @_ZN32pxrInternal_v0_24__pxrReserved__7GfVec2iixEm(ptr noundef nonnull align 4 dereferenceable(8) %4, i64 noundef 1)
  store i32 %43, ptr %44, align 4
  %45 = getelementptr inbounds nuw %"class.pxrInternal_v0_24__pxrReserved__::GfRect2i", ptr %6, i32 0, i32 0
  %46 = call noundef nonnull align 4 dereferenceable(4) ptr @_ZNK32pxrInternal_v0_24__pxrReserved__7GfVec2iixEm(ptr noundef nonnull align 4 dereferenceable(8) %45, i64 noundef 1)
  %47 = load i32, ptr %46, align 4
  %48 = call noundef nonnull align 4 dereferenceable(4) ptr @_ZN32pxrInternal_v0_24__pxrReserved__7GfVec2iixEm(ptr noundef nonnull align 4 dereferenceable(8) %5, i64 noundef 1)
  store i32 %47, ptr %48, align 4
  br label %58

49:                                               ; preds = %32
  %50 = getelementptr inbounds nuw %"class.pxrInternal_v0_24__pxrReserved__::GfRect2i", ptr %6, i32 0, i32 0
  %51 = call noundef nonnull align 4 dereferenceable(4) ptr @_ZNK32pxrInternal_v0_24__pxrReserved__7GfVec2iixEm(ptr noundef nonnull align 4 dereferenceable(8) %50, i64 noundef 1)
  %52 = load i32, ptr %51, align 4
  %53 = call noundef nonnull align 4 dereferenceable(4) ptr @_ZN32pxrInternal_v0_24__pxrReserved__7GfVec2iixEm(ptr noundef nonnull align 4 dereferenceable(8) %4, i64 noundef 1)
  store i32 %52, ptr %53, align 4
  %54 = getelementptr inbounds nuw %"class.pxrInternal_v0_24__pxrReserved__::GfRect2i", ptr %6, i32 0, i32 1
  %55 = call noundef nonnull align 4 dereferenceable(4) ptr @_ZNK32pxrInternal_v0_24__pxrReserved__7GfVec2iixEm(ptr noundef nonnull align 4 dereferenceable(8) %54, i64 noundef 1)
  %56 = load i32, ptr %55, align 4
  %57 = call noundef nonnull align 4 dereferenceable(4) ptr @_ZN32pxrInternal_v0_24__pxrReserved__7GfVec2iixEm(ptr noundef nonnull align 4 dereferenceable(8) %5, i64 noundef 1)
  store i32 %56, ptr %57, align 4
  br label %58

58:                                               ; preds = %49, %40
  call void @_ZN32pxrInternal_v0_24__pxrReserved__8GfRect2iC2ERKNS_7GfVec2iES3_(ptr noundef nonnull align 4 dereferenceable(16) %2, ptr noundef nonnull align 4 dereferenceable(8) %4, ptr noundef nonnull align 4 dereferenceable(8) %5)
  %59 = load { i64, i64 }, ptr %2, align 4
  ret { i64, i64 } %59
}