; Function Attrs: mustprogress nofree norecurse nosync nounwind willreturn memory(argmem: read) uwtable
define { i64, i64 } @_ZNK32pxrInternal_v0_24__pxrReserved__8GfRect2i13GetNormalizedEv(ptr nocapture noundef nonnull readonly align 4 dereferenceable(16) %0) local_unnamed_addr #1 align 2 {
  %2 = getelementptr inbounds nuw i8, ptr %0, i64 8
  %3 = load i32, ptr %2, align 4
  %4 = load i32, ptr %0, align 4
  %spec.select = tail call i32 @llvm.smin.i32(i32 %3, i32 %4)
  %spec.select4 = tail call i32 @llvm.smax.i32(i32 %3, i32 %4)
  %5 = getelementptr inbounds i8, ptr %0, i64 12
  %6 = load i32, ptr %5, align 4
  %7 = getelementptr inbounds i8, ptr %0, i64 4
  %8 = load i32, ptr %7, align 4
  %.sroa.32.0 = tail call i32 @llvm.smin.i32(i32 %6, i32 %8)
  %.sroa.3.0 = tail call i32 @llvm.smax.i32(i32 %6, i32 %8)
  %.sroa.32.0.insert.ext = zext i32 %.sroa.32.0 to i64
  %.sroa.32.0.insert.shift = shl nuw i64 %.sroa.32.0.insert.ext, 32
  %.sroa.01.0.insert.ext = zext i32 %spec.select to i64
  %.sroa.01.0.insert.insert = or disjoint i64 %.sroa.32.0.insert.shift, %.sroa.01.0.insert.ext
  %.sroa.3.0.insert.ext = zext i32 %.sroa.3.0 to i64
  %.sroa.3.0.insert.shift = shl nuw i64 %.sroa.3.0.insert.ext, 32
  %.sroa.0.0.insert.ext = zext i32 %spec.select4 to i64
  %.sroa.0.0.insert.insert = or disjoint i64 %.sroa.3.0.insert.shift, %.sroa.0.0.insert.ext
  %.fca.0.insert = insertvalue { i64, i64 } poison, i64 %.sroa.01.0.insert.insert, 0
  %.fca.1.insert = insertvalue { i64, i64 } %.fca.0.insert, i64 %.sroa.0.0.insert.insert, 1
  ret { i64, i64 } %.fca.1.insert
}